target datalayout = "e-m:e-p270:32:32-p271:32:32-p272:64:64-i64:64-i128:128-f80:128-n8:16:32:64-S128"
target triple = "x86_64-pc-linux-gnu"

%struct.pmix_lock_t = type { i32, %struct.pmix_mutex_t, %union.pthread_cond_t, i8 }
%struct.pmix_mutex_t = type { %struct.pmix_object_t, %union.pthread_mutex_t }
%struct.pmix_object_t = type { %union.pthread_mutex_t, ptr, i32, %struct.pmix_tma }
%struct.pmix_tma = type { ptr, ptr, ptr, ptr, ptr, ptr, ptr, ptr }
%union.pthread_mutex_t = type { %struct.__pthread_mutex_s }
%struct.__pthread_mutex_s = type { i32, i32, i32, i32, i32, i16, i16, %struct.__pthread_internal_list }
%struct.__pthread_internal_list = type { ptr, ptr }
%union.pthread_cond_t = type { %struct.__pthread_cond_s }
%struct.__pthread_cond_s = type { %union.__atomic_wide_counter, %union.__atomic_wide_counter, [2 x i32], [2 x i32], i32, i32, [2 x i32] }
%union.__atomic_wide_counter = type { i64 }
%struct.timeval = type { i64, i64 }
%struct.pmix_list_t = type { %struct.pmix_object_t, %struct.pmix_list_item_t, i64 }
%struct.pmix_list_item_t = type { %struct.pmix_object_t, ptr, ptr, i32 }
%struct.pmix_query_caddy_t = type { %struct.pmix_object_t, %struct.event, %struct.pmix_lock_t, i8, i32, ptr, i64, ptr, i64, ptr, ptr, i64, i64, %struct.pmix_list_t, i64, i64, %struct.pmix_byte_object, ptr, ptr, ptr, ptr, ptr, ptr }
%struct.event = type { %struct.event_callback, %union.anon.0, i32, ptr, %union.anon.2, i16, i16, %struct.timeval }
%struct.event_callback = type { %struct.anon, i16, i8, i8, %union.anon, ptr }
%struct.anon = type { ptr, ptr }
%union.anon = type { ptr }
%union.anon.0 = type { %struct.anon.1 }
%struct.anon.1 = type { ptr, ptr }
%union.anon.2 = type { %struct.anon.3 }
%struct.anon.3 = type { %struct.anon.4, %struct.timeval }
%struct.anon.4 = type { ptr, ptr }
%struct.pmix_byte_object = type { ptr, i64 }

; Function Attrs: inlinehint nounwind uwtable
define internal void @pmix_mutex_unlock(ptr noundef %0) #3 {
  %2 = alloca ptr, align 8
  store ptr %0, ptr %2, align 8, !tbaa !124
  %3 = load ptr, ptr %2, align 8, !tbaa !124
  %4 = getelementptr inbounds nuw %struct.pmix_mutex_t, ptr %3, i32 0, i32 1
  %5 = call i32 @pthread_mutex_unlock(ptr noundef %4) #10
  ret void
}

; Function Attrs: inlinehint nounwind uwtable
define internal void @pmix_atomic_wmb() #3 {
  fence release
  ret void
}

; Function Attrs: inlinehint nounwind uwtable
define internal void @pmix_mutex_lock(ptr noundef %0) #3 {
  %2 = alloca ptr, align 8
  store ptr %0, ptr %2, align 8, !tbaa !124
  %3 = load ptr, ptr %2, align 8, !tbaa !124
  %4 = getelementptr inbounds nuw %struct.pmix_mutex_t, ptr %3, i32 0, i32 1
  %5 = call i32 @pthread_mutex_lock(ptr noundef %4) #10
  ret void
}

; Function Attrs: inlinehint nounwind uwtable
define internal void @pmix_atomic_rmb() #3 {
  fence acquire
  ret void
}

; Function Attrs: nounwind uwtable
define internal void @mycdcb(i32 noundef %0, ptr noundef %1, ptr noundef %2, i64 noundef %3, ptr noundef %4) #0 {
  %6 = alloca i32, align 4
  %7 = alloca ptr, align 8
  %8 = alloca ptr, align 8
  %9 = alloca i64, align 8
  %10 = alloca ptr, align 8
  %11 = alloca ptr, align 8
  store i32 %0, ptr %6, align 4, !tbaa !12
  store ptr %1, ptr %7, align 8, !tbaa !10
  store ptr %2, ptr %8, align 8, !tbaa !3
  store i64 %3, ptr %9, align 8, !tbaa !8
  store ptr %4, ptr %10, align 8, !tbaa !63
  call void @llvm.lifetime.start.p0(i64 8, ptr %11) #10
  %12 = load ptr, ptr %10, align 8, !tbaa !63
  store ptr %12, ptr %11, align 8, !tbaa !63
  call void @pmix_atomic_rmb()
  %13 = load i32, ptr %6, align 4, !tbaa !12
  %14 = load ptr, ptr %11, align 8, !tbaa !63
  %15 = getelementptr inbounds nuw %struct.pmix_query_caddy_t, ptr %14, i32 0, i32 4
  store i32 %13, ptr %15, align 4, !tbaa !45
  %16 = load i32, ptr %6, align 4, !tbaa !12
  %17 = icmp eq i32 0, %16
  br i1 %17, label %18, label %45

18:                                               ; preds = %5
  %19 = load ptr, ptr %7, align 8, !tbaa !10
  %20 = icmp ne ptr null, %19
  br i1 %20, label %21, label %45

21:                                               ; preds = %18
  %22 = load ptr, ptr %7, align 8, !tbaa !10
  %23 = getelementptr inbounds nuw %struct.pmix_byte_object, ptr %22, i32 0, i32 1
  %24 = load i64, ptr %23, align 8, !tbaa !49
  %25 = call noalias ptr @malloc(i64 noundef %24) #11
  %26 = load ptr, ptr %11, align 8, !tbaa !63
  %27 = getelementptr inbounds nuw %struct.pmix_query_caddy_t, ptr %26, i32 0, i32 16
  %28 = getelementptr inbounds nuw %struct.pmix_byte_object, ptr %27, i32 0, i32 0
  store ptr %25, ptr %28, align 8, !tbaa !46
  %29 = load ptr, ptr %11, align 8, !tbaa !63
  %30 = getelementptr inbounds nuw %struct.pmix_query_caddy_t, ptr %29, i32 0, i32 16
  %31 = getelementptr inbounds nuw %struct.pmix_byte_object, ptr %30, i32 0, i32 0
  %32 = load ptr, ptr %31, align 8, !tbaa !46
  %33 = load ptr, ptr %7, align 8, !tbaa !10
  %34 = getelementptr inbounds nuw %struct.pmix_byte_object, ptr %33, i32 0, i32 0
  %35 = load ptr, ptr %34, align 8, !tbaa !48
  %36 = load ptr, ptr %7, align 8, !tbaa !10
  %37 = getelementptr inbounds nuw %struct.pmix_byte_object, ptr %36, i32 0, i32 1
  %38 = load i64, ptr %37, align 8, !tbaa !49
  call void @llvm.memcpy.p0.p0.i64(ptr align 1 %32, ptr align 1 %35, i64 %38, i1 false)
  %39 = load ptr, ptr %7, align 8, !tbaa !10
  %40 = getelementptr inbounds nuw %struct.pmix_byte_object, ptr %39, i32 0, i32 1
  %41 = load i64, ptr %40, align 8, !tbaa !49
  %42 = load ptr, ptr %11, align 8, !tbaa !63
  %43 = getelementptr inbounds nuw %struct.pmix_query_caddy_t, ptr %42, i32 0, i32 16
  %44 = getelementptr inbounds nuw %struct.pmix_byte_object, ptr %43, i32 0, i32 1
  store i64 %41, ptr %44, align 8, !tbaa !47
  br label %45

45:                                               ; preds = %21, %18, %5
  br label %46

46:                                               ; preds = %45
  %47 = load ptr, ptr %11, align 8, !tbaa !63
  %48 = getelementptr inbounds nuw %struct.pmix_query_caddy_t, ptr %47, i32 0, i32 2
  %49 = getelementptr inbounds nuw %struct.pmix_lock_t, ptr %48, i32 0, i32 1
  call void @pmix_mutex_lock(ptr noundef %49)
  %50 = load ptr, ptr %11, align 8, !tbaa !63
  %51 = getelementptr inbounds nuw %struct.pmix_query_caddy_t, ptr %50, i32 0, i32 2
  %52 = getelementptr inbounds nuw %struct.pmix_lock_t, ptr %51, i32 0, i32 3
  store volatile i8 0, ptr %52, align 8, !tbaa !22
  call void @pmix_atomic_wmb()
  %53 = load ptr, ptr %11, align 8, !tbaa !63
  %54 = getelementptr inbounds nuw %struct.pmix_query_caddy_t, ptr %53, i32 0, i32 2
  %55 = getelementptr inbounds nuw %struct.pmix_lock_t, ptr %54, i32 0, i32 2
  %56 = call i32 @pthread_cond_broadcast(ptr noundef %55) #10
  %57 = load ptr, ptr %11, align 8, !tbaa !63
  %58 = getelementptr inbounds nuw %struct.pmix_query_caddy_t, ptr %57, i32 0, i32 2
  %59 = getelementptr inbounds nuw %struct.pmix_lock_t, ptr %58, i32 0, i32 1
  call void @pmix_mutex_unlock(ptr noundef %59)
  br label %60

60:                                               ; preds = %46
  br label %61

61:                                               ; preds = %60
  call void @llvm.lifetime.end.p0(i64 8, ptr %11) #10
  ret void
}