; Function Attrs: nounwind uwtable
define internal void @mycdcb(i32 noundef %0, ptr noundef readonly captures(address_is_null) %1, ptr readnone captures(none) %2, i64 %3, ptr noundef initializes((476, 480)) %4) #0 {
  fence acquire
  %6 = getelementptr inbounds nuw i8, ptr %4, i64 476
  store i32 %0, ptr %6, align 4, !tbaa !44
  %7 = icmp eq i32 %0, 0
  %8 = icmp ne ptr %1, null
  %or.cond = and i1 %7, %8
  br i1 %or.cond, label %9, label %16

9:                                                ; preds = %5
  %10 = getelementptr inbounds nuw i8, ptr %1, i64 8
  %11 = load i64, ptr %10, align 8, !tbaa !48
  %12 = tail call noalias ptr @malloc(i64 noundef %11) #13
  %13 = getelementptr inbounds nuw i8, ptr %4, i64 832
  store ptr %12, ptr %13, align 8, !tbaa !45
  %14 = load ptr, ptr %1, align 8, !tbaa !47
  tail call void @llvm.memcpy.p0.p0.i64(ptr align 1 %12, ptr align 1 %14, i64 %11, i1 false)
  %15 = getelementptr inbounds nuw i8, ptr %4, i64 840
  store i64 %11, ptr %15, align 8, !tbaa !46
  br label %16

16:                                               ; preds = %5, %9
  %17 = getelementptr inbounds nuw i8, ptr %4, i64 376
  %18 = tail call i32 @pthread_mutex_lock(ptr noundef nonnull %17) #12
  %19 = getelementptr inbounds nuw i8, ptr %4, i64 464
  store volatile i8 0, ptr %19, align 8, !tbaa !21
  fence release
  %20 = getelementptr inbounds nuw i8, ptr %4, i64 416
  %21 = tail call i32 @pthread_cond_broadcast(ptr noundef nonnull %20) #12
  %22 = tail call i32 @pthread_mutex_unlock(ptr noundef nonnull %17) #12
  ret void
}